target datalayout = "e-m:e-p270:32:32-p271:32:32-p272:64:64-i64:64-i128:128-f80:128-n8:16:32:64-S128"
target triple = "x86_64-pc-linux-gnu"

%struct._object = type { %union.anon, ptr }
%union.anon = type { i64 }
%struct._typeobject = type { %struct.PyVarObject, ptr, i64, i64, ptr, i64, ptr, ptr, ptr, ptr, ptr, ptr, ptr, ptr, ptr, ptr, ptr, ptr, ptr, i64, ptr, ptr, ptr, ptr, i64, ptr, ptr, ptr, ptr, ptr, ptr, ptr, ptr, ptr, i64, ptr, ptr, ptr, ptr, ptr, ptr, ptr, ptr, ptr, ptr, ptr, i32, ptr, ptr, i8, i16 }
%struct.PyVarObject = type { %struct._object, i64 }
%struct._socket_state = type { ptr, ptr, ptr, i64 }
%struct.anon = type { i32, i32 }
%struct.PySocketSockObject = type { %struct._object, i32, i32, i32, i32, ptr, i64, ptr }

@PyExc_OSError = external global ptr, align 8

; Function Attrs: inlinehint nounwind uwtable
define internal i32 @get_sock_fd(ptr noundef %0) #3 {
  %2 = alloca ptr, align 8
  store ptr %0, ptr %2, align 8, !tbaa !8
  %3 = load ptr, ptr %2, align 8, !tbaa !8
  %4 = getelementptr inbounds nuw %struct.PySocketSockObject, ptr %3, i32 0, i32 1
  %5 = load i32, ptr %4, align 8, !tbaa !113
  ret i32 %5
}

; Function Attrs: alwaysinline nounwind uwtable
define internal i32 @_Py_IsImmortal(ptr noundef %0) #8 {
  %2 = alloca ptr, align 8
  store ptr %0, ptr %2, align 8, !tbaa !3
  %3 = load ptr, ptr %2, align 8, !tbaa !3
  %4 = getelementptr inbounds nuw %struct._object, ptr %3, i32 0, i32 0
  %5 = getelementptr inbounds nuw %struct.anon, ptr %4, i32 0, i32 0
  %6 = load i32, ptr %5, align 8, !tbaa !35
  %7 = icmp slt i32 %6, 0
  %8 = zext i1 %7 to i32
  ret i32 %8
}

; Function Attrs: nounwind uwtable
define internal i32 @internal_setblocking(ptr noundef %0, i32 noundef %1) #0 {
  %3 = alloca ptr, align 8
  %4 = alloca i32, align 4
  %5 = alloca i32, align 4
  %6 = alloca ptr, align 8
  store ptr %0, ptr %3, align 8, !tbaa !8
  store i32 %1, ptr %4, align 4, !tbaa !15
  call void @llvm.lifetime.start.p0(i64 4, ptr %5) #10
  store i32 -1, ptr %5, align 4, !tbaa !15
  call void @llvm.lifetime.start.p0(i64 8, ptr %6) #10
  %7 = call ptr @PyEval_SaveThread()
  store ptr %7, ptr %6, align 8, !tbaa !26
  %8 = load i32, ptr %4, align 4, !tbaa !15
  %9 = icmp ne i32 %8, 0
  %10 = xor i1 %9, true
  %11 = zext i1 %10 to i32
  store i32 %11, ptr %4, align 4, !tbaa !15
  %12 = load ptr, ptr %3, align 8, !tbaa !8
  %13 = call i32 @get_sock_fd(ptr noundef %12)
  %14 = call i32 (i32, i64, ...) @ioctl(i32 noundef %13, i64 noundef 21537, ptr noundef %4) #10
  %15 = icmp eq i32 %14, -1
  br i1 %15, label %16, label %17

16:                                               ; preds = %2
  br label %18

17:                                               ; preds = %2
  store i32 0, ptr %5, align 4, !tbaa !15
  br label %18

18:                                               ; preds = %17, %16
  %19 = load ptr, ptr %6, align 8, !tbaa !26
  call void @PyEval_RestoreThread(ptr noundef %19)
  call void @llvm.lifetime.end.p0(i64 8, ptr %6) #10
  %20 = load i32, ptr %5, align 4, !tbaa !15
  %21 = icmp ne i32 %20, 0
  br i1 %21, label %22, label %25

22:                                               ; preds = %18
  %23 = load ptr, ptr @PyExc_OSError, align 8, !tbaa !3
  %24 = call ptr @PyErr_SetFromErrno(ptr noundef %23)
  br label %25

25:                                               ; preds = %22, %18
  %26 = load i32, ptr %5, align 4, !tbaa !15
  call void @llvm.lifetime.end.p0(i64 4, ptr %5) #10
  ret i32 %26
}

; Function Attrs: inlinehint nounwind uwtable
define internal i64 @_Py_atomic_load_int64_relaxed(ptr noundef %0) #3 {
  %2 = alloca ptr, align 8
  %3 = alloca i64, align 8
  store ptr %0, ptr %2, align 8, !tbaa !114
  %4 = load ptr, ptr %2, align 8, !tbaa !114
  %5 = load atomic i64, ptr %4 monotonic, align 8
  store i64 %5, ptr %3, align 8
  %6 = load i64, ptr %3, align 8, !tbaa !52
  ret i64 %6
}

; Function Attrs: inlinehint nounwind uwtable
define internal void @set_sock_fd(ptr noundef %0, i32 noundef %1) #3 {
  %3 = alloca ptr, align 8
  %4 = alloca i32, align 4
  store ptr %0, ptr %3, align 8, !tbaa !8
  store i32 %1, ptr %4, align 4, !tbaa !15
  %5 = load i32, ptr %4, align 4, !tbaa !15
  %6 = load ptr, ptr %3, align 8, !tbaa !8
  %7 = getelementptr inbounds nuw %struct.PySocketSockObject, ptr %6, i32 0, i32 1
  store i32 %5, ptr %7, align 8, !tbaa !113
  ret void
}

; Function Attrs: alwaysinline nounwind uwtable
define internal void @Py_DECREF(ptr noundef %0) #8 {
  %2 = alloca ptr, align 8
  store ptr %0, ptr %2, align 8, !tbaa !3
  %3 = load ptr, ptr %2, align 8, !tbaa !3
  %4 = call i32 @_Py_IsImmortal(ptr noundef %3)
  %5 = icmp ne i32 %4, 0
  br i1 %5, label %6, label %7

6:                                                ; preds = %1
  br label %16

7:                                                ; preds = %1
  %8 = load ptr, ptr %2, align 8, !tbaa !3
  %9 = getelementptr inbounds nuw %struct._object, ptr %8, i32 0, i32 0
  %10 = getelementptr inbounds nuw %struct.anon, ptr %9, i32 0, i32 0
  %11 = load i32, ptr %10, align 8, !tbaa !35
  %12 = add i32 %11, -1
  store i32 %12, ptr %10, align 8, !tbaa !35
  %13 = icmp eq i32 %12, 0
  br i1 %13, label %14, label %16

14:                                               ; preds = %7
  %15 = load ptr, ptr %2, align 8, !tbaa !3
  call void @_Py_Dealloc(ptr noundef %15)
  br label %16

16:                                               ; preds = %6, %14, %7
  ret void
}

; Function Attrs: nounwind uwtable
define internal i32 @init_sockobject(ptr noundef %0, ptr noundef %1, i32 noundef %2, i32 noundef %3, i32 noundef %4, i32 noundef %5) #0 {
  %7 = alloca i32, align 4
  %8 = alloca ptr, align 8
  %9 = alloca ptr, align 8
  %10 = alloca i32, align 4
  %11 = alloca i32, align 4
  %12 = alloca i32, align 4
  %13 = alloca i32, align 4
  store ptr %0, ptr %8, align 8, !tbaa !9
  store ptr %1, ptr %9, align 8, !tbaa !8
  store i32 %2, ptr %10, align 4, !tbaa !15
  store i32 %3, ptr %11, align 4, !tbaa !15
  store i32 %4, ptr %12, align 4, !tbaa !15
  store i32 %5, ptr %13, align 4, !tbaa !15
  %14 = load ptr, ptr %9, align 8, !tbaa !8
  %15 = load i32, ptr %10, align 4, !tbaa !15
  call void @set_sock_fd(ptr noundef %14, i32 noundef %15)
  %16 = load i32, ptr %11, align 4, !tbaa !15
  %17 = load ptr, ptr %9, align 8, !tbaa !8
  %18 = getelementptr inbounds nuw %struct.PySocketSockObject, ptr %17, i32 0, i32 2
  store i32 %16, ptr %18, align 4, !tbaa !106
  %19 = load i32, ptr %12, align 4, !tbaa !15
  %20 = load ptr, ptr %9, align 8, !tbaa !8
  %21 = getelementptr inbounds nuw %struct.PySocketSockObject, ptr %20, i32 0, i32 3
  store i32 %19, ptr %21, align 8, !tbaa !108
  %22 = load ptr, ptr %9, align 8, !tbaa !8
  %23 = getelementptr inbounds nuw %struct.PySocketSockObject, ptr %22, i32 0, i32 3
  %24 = load i32, ptr %23, align 8, !tbaa !108
  %25 = and i32 %24, -2049
  %26 = load ptr, ptr %9, align 8, !tbaa !8
  %27 = getelementptr inbounds nuw %struct.PySocketSockObject, ptr %26, i32 0, i32 3
  store i32 %25, ptr %27, align 8, !tbaa !108
  %28 = load ptr, ptr %9, align 8, !tbaa !8
  %29 = getelementptr inbounds nuw %struct.PySocketSockObject, ptr %28, i32 0, i32 3
  %30 = load i32, ptr %29, align 8, !tbaa !108
  %31 = and i32 %30, -524289
  %32 = load ptr, ptr %9, align 8, !tbaa !8
  %33 = getelementptr inbounds nuw %struct.PySocketSockObject, ptr %32, i32 0, i32 3
  store i32 %31, ptr %33, align 8, !tbaa !108
  %34 = load i32, ptr %13, align 4, !tbaa !15
  %35 = load ptr, ptr %9, align 8, !tbaa !8
  %36 = getelementptr inbounds nuw %struct.PySocketSockObject, ptr %35, i32 0, i32 4
  store i32 %34, ptr %36, align 4, !tbaa !109
  %37 = load ptr, ptr %9, align 8, !tbaa !8
  %38 = getelementptr inbounds nuw %struct.PySocketSockObject, ptr %37, i32 0, i32 5
  store ptr @set_error, ptr %38, align 8, !tbaa !110
  %39 = load i32, ptr %12, align 4, !tbaa !15
  %40 = and i32 %39, 2048
  %41 = icmp ne i32 %40, 0
  br i1 %41, label %42, label %45

42:                                               ; preds = %6
  %43 = load ptr, ptr %9, align 8, !tbaa !8
  %44 = getelementptr inbounds nuw %struct.PySocketSockObject, ptr %43, i32 0, i32 6
  store i64 0, ptr %44, align 8, !tbaa !111
  br label %62

45:                                               ; preds = %6
  %46 = load ptr, ptr %8, align 8, !tbaa !9
  %47 = getelementptr inbounds nuw %struct._socket_state, ptr %46, i32 0, i32 3
  %48 = call i64 @_Py_atomic_load_int64_relaxed(ptr noundef %47)
  %49 = load ptr, ptr %9, align 8, !tbaa !8
  %50 = getelementptr inbounds nuw %struct.PySocketSockObject, ptr %49, i32 0, i32 6
  store i64 %48, ptr %50, align 8, !tbaa !111
  %51 = load ptr, ptr %9, align 8, !tbaa !8
  %52 = getelementptr inbounds nuw %struct.PySocketSockObject, ptr %51, i32 0, i32 6
  %53 = load i64, ptr %52, align 8, !tbaa !111
  %54 = icmp sge i64 %53, 0
  br i1 %54, label %55, label %61

55:                                               ; preds = %45
  %56 = load ptr, ptr %9, align 8, !tbaa !8
  %57 = call i32 @internal_setblocking(ptr noundef %56, i32 noundef 0)
  %58 = icmp eq i32 %57, -1
  br i1 %58, label %59, label %60

59:                                               ; preds = %55
  store i32 -1, ptr %7, align 4
  br label %66

60:                                               ; preds = %55
  br label %61

61:                                               ; preds = %60, %45
  br label %62

62:                                               ; preds = %61, %42
  %63 = load ptr, ptr %8, align 8, !tbaa !9
  %64 = load ptr, ptr %9, align 8, !tbaa !8
  %65 = getelementptr inbounds nuw %struct.PySocketSockObject, ptr %64, i32 0, i32 7
  store ptr %63, ptr %65, align 8, !tbaa !112
  store i32 0, ptr %7, align 4
  br label %66

66:                                               ; preds = %62, %59
  %67 = load i32, ptr %7, align 4
  ret i32 %67
}

; Function Attrs: nounwind uwtable
define internal ptr @new_sockobject(ptr noundef %0, i32 noundef %1, i32 noundef %2, i32 noundef %3, i32 noundef %4) #0 {
  %6 = alloca ptr, align 8
  %7 = alloca ptr, align 8
  %8 = alloca i32, align 4
  %9 = alloca i32, align 4
  %10 = alloca i32, align 4
  %11 = alloca i32, align 4
  %12 = alloca ptr, align 8
  %13 = alloca ptr, align 8
  %14 = alloca i32, align 4
  store ptr %0, ptr %7, align 8, !tbaa !9
  store i32 %1, ptr %8, align 4, !tbaa !15
  store i32 %2, ptr %9, align 4, !tbaa !15
  store i32 %3, ptr %10, align 4, !tbaa !15
  store i32 %4, ptr %11, align 4, !tbaa !15
  call void @llvm.lifetime.start.p0(i64 8, ptr %12) #10
  %15 = load ptr, ptr %7, align 8, !tbaa !9
  %16 = getelementptr inbounds nuw %struct._socket_state, ptr %15, i32 0, i32 0
  %17 = load ptr, ptr %16, align 8, !tbaa !11
  store ptr %17, ptr %12, align 8, !tbaa !21
  call void @llvm.lifetime.start.p0(i64 8, ptr %13) #10
  %18 = load ptr, ptr %12, align 8, !tbaa !21
  %19 = getelementptr inbounds nuw %struct._typeobject, ptr %18, i32 0, i32 36
  %20 = load ptr, ptr %19, align 8, !tbaa !105
  %21 = load ptr, ptr %12, align 8, !tbaa !21
  %22 = call ptr %20(ptr noundef %21, i64 noundef 0)
  store ptr %22, ptr %13, align 8, !tbaa !8
  %23 = load ptr, ptr %13, align 8, !tbaa !8
  %24 = icmp eq ptr %23, null
  br i1 %24, label %25, label %26

25:                                               ; preds = %5
  store ptr null, ptr %6, align 8
  store i32 1, ptr %14, align 4
  br label %39

26:                                               ; preds = %5
  %27 = load ptr, ptr %7, align 8, !tbaa !9
  %28 = load ptr, ptr %13, align 8, !tbaa !8
  %29 = load i32, ptr %8, align 4, !tbaa !15
  %30 = load i32, ptr %9, align 4, !tbaa !15
  %31 = load i32, ptr %10, align 4, !tbaa !15
  %32 = load i32, ptr %11, align 4, !tbaa !15
  %33 = call i32 @init_sockobject(ptr noundef %27, ptr noundef %28, i32 noundef %29, i32 noundef %30, i32 noundef %31, i32 noundef %32)
  %34 = icmp eq i32 %33, -1
  br i1 %34, label %35, label %37

35:                                               ; preds = %26
  %36 = load ptr, ptr %13, align 8, !tbaa !8
  call void @Py_DECREF(ptr noundef %36)
  store ptr null, ptr %6, align 8
  store i32 1, ptr %14, align 4
  br label %39

37:                                               ; preds = %26
  %38 = load ptr, ptr %13, align 8, !tbaa !8
  store ptr %38, ptr %6, align 8
  store i32 1, ptr %14, align 4
  br label %39

39:                                               ; preds = %37, %35, %25
  call void @llvm.lifetime.end.p0(i64 8, ptr %13) #10
  call void @llvm.lifetime.end.p0(i64 8, ptr %12) #10
  %40 = load ptr, ptr %6, align 8
  ret ptr %40
}