; Function Attrs: nounwind uwtable
define internal fastcc ptr @new_sockobject(ptr noundef %0, i32 noundef %1, i32 noundef %2, i32 noundef %3, i32 noundef %4) unnamed_addr #0 {
  %6 = alloca i32, align 4
  %7 = load ptr, ptr %0, align 8, !tbaa !12
  %8 = getelementptr inbounds nuw i8, ptr %7, i64 304
  %9 = load ptr, ptr %8, align 8, !tbaa !82
  %10 = tail call ptr %9(ptr noundef %7, i64 noundef 0) #13
  %11 = icmp eq ptr %10, null
  br i1 %11, label %Py_DECREF.exit, label %12

12:                                               ; preds = %5
  %13 = getelementptr inbounds nuw i8, ptr %10, i64 16
  store i32 %1, ptr %13, align 8, !tbaa !83
  %14 = getelementptr inbounds nuw i8, ptr %10, i64 20
  store i32 %2, ptr %14, align 4, !tbaa !86
  %15 = getelementptr inbounds nuw i8, ptr %10, i64 24
  %16 = and i32 %3, -526337
  store i32 %16, ptr %15, align 8, !tbaa !87
  %17 = getelementptr inbounds nuw i8, ptr %10, i64 28
  store i32 %4, ptr %17, align 4, !tbaa !88
  %18 = getelementptr inbounds nuw i8, ptr %10, i64 32
  store ptr @set_error, ptr %18, align 8, !tbaa !89
  %19 = and i32 %3, 2048
  %.not.i13 = icmp eq i32 %19, 0
  br i1 %.not.i13, label %22, label %20

20:                                               ; preds = %12
  %21 = getelementptr inbounds nuw i8, ptr %10, i64 40
  store i64 0, ptr %21, align 8, !tbaa !90
  br label %init_sockobject.exit

22:                                               ; preds = %12
  %23 = getelementptr inbounds nuw i8, ptr %0, i64 24
  %24 = load atomic i64, ptr %23 monotonic, align 8
  %25 = getelementptr inbounds nuw i8, ptr %10, i64 40
  store i64 %24, ptr %25, align 8, !tbaa !90
  %26 = icmp sgt i64 %24, -1
  br i1 %26, label %27, label %init_sockobject.exit

27:                                               ; preds = %22
  call void @llvm.lifetime.start.p0(i64 4, ptr nonnull %6)
  %28 = tail call ptr @PyEval_SaveThread() #13
  store i32 1, ptr %6, align 4, !tbaa !35
  %.val.i.i = load i32, ptr %13, align 8, !tbaa !83
  %29 = call i32 (i32, i64, ...) @ioctl(i32 noundef %.val.i.i, i64 noundef 21537, ptr noundef nonnull %6) #13
  %.not4.i.i = icmp eq i32 %29, -1
  call void @PyEval_RestoreThread(ptr noundef %28) #13
  br i1 %.not4.i.i, label %31, label %internal_setblocking.exit.i

internal_setblocking.exit.i:                      ; preds = %27
  call void @llvm.lifetime.end.p0(i64 4, ptr nonnull %6)
  br label %init_sockobject.exit

init_sockobject.exit:                             ; preds = %20, %22, %internal_setblocking.exit.i
  %30 = getelementptr inbounds nuw i8, ptr %10, i64 48
  store ptr %0, ptr %30, align 8, !tbaa !91
  br label %Py_DECREF.exit

31:                                               ; preds = %27
  %32 = load ptr, ptr @PyExc_OSError, align 8, !tbaa !19
  %33 = call ptr @PyErr_SetFromErrno(ptr noundef %32) #13
  call void @llvm.lifetime.end.p0(i64 4, ptr nonnull %6)
  %34 = load i32, ptr %10, align 8, !tbaa !18
  %.not.i = icmp sgt i32 %34, -1
  br i1 %.not.i, label %35, label %Py_DECREF.exit

35:                                               ; preds = %31
  %36 = add nsw i32 %34, -1
  store i32 %36, ptr %10, align 8, !tbaa !18
  %37 = icmp eq i32 %36, 0
  br i1 %37, label %38, label %Py_DECREF.exit

38:                                               ; preds = %35
  call void @_Py_Dealloc(ptr noundef nonnull %10) #13
  br label %Py_DECREF.exit

Py_DECREF.exit:                                   ; preds = %38, %35, %31, %init_sockobject.exit, %5
  %.0 = phi ptr [ null, %5 ], [ %10, %init_sockobject.exit ], [ null, %31 ], [ null, %35 ], [ null, %38 ]
  ret ptr %.0
}